; Function Attrs: mustprogress uwtable
define void @_ZN3net10IPEndPointC2ERKS0_(ptr noundef nonnull align 8 dereferenceable(26) %0, ptr noundef nonnull align 8 dereferenceable(26) %1) unnamed_addr #0 align 2 personality ptr @__gxx_personality_v0 {
  tail call void @_ZN3net9IPAddressC1Ev(ptr noundef nonnull align 8 dereferenceable(24) %0)
  %3 = invoke noundef nonnull align 8 dereferenceable(24) ptr @_ZNSt6vectorIhSaIhEEaSERKS1_(ptr noundef nonnull align 8 dereferenceable(24) %0, ptr noundef nonnull align 8 dereferenceable(24) %1)
          to label %_ZN3net9IPAddressaSERKS0_.exit unwind label %7

_ZN3net9IPAddressaSERKS0_.exit:                   ; preds = %2
  %4 = getelementptr inbounds nuw i8, ptr %1, i64 24
  %5 = load i16, ptr %4, align 8, !tbaa !3
  %6 = getelementptr inbounds nuw i8, ptr %0, i64 24
  store i16 %5, ptr %6, align 8, !tbaa !3
  ret void

7:                                                ; preds = %2
  %8 = landingpad { ptr, i32 }
          cleanup
  tail call void @_ZN3net9IPAddressD1Ev(ptr noundef nonnull align 8 dereferenceable(24) %0) #13
  resume { ptr, i32 } %8
}